; Function Attrs: mustprogress nofree norecurse nosync nounwind willreturn memory(argmem: write) uwtable
define void @u_charAge_77(i32 noundef %0, ptr noundef writeonly %1) local_unnamed_addr #4 {
  %.not = icmp eq ptr %1, null
  br i1 %.not, label %48, label %3

3:                                                ; preds = %2
  %4 = icmp ult i32 %0, 55296
  br i1 %4, label %5, label %7

5:                                                ; preds = %3
  %6 = lshr i32 %0, 5
  br label %.sink.split.i

7:                                                ; preds = %3
  %8 = icmp ult i32 %0, 65536
  br i1 %8, label %9, label %14

9:                                                ; preds = %7
  %10 = icmp samesign ult i32 %0, 56320
  %11 = select i1 %10, i32 320, i32 0
  %12 = lshr i32 %0, 5
  %13 = add nuw nsw i32 %11, %12
  br label %.sink.split.i

14:                                               ; preds = %7
  %15 = icmp ugt i32 %0, 1114111
  br i1 %15, label %u_getUnicodeProperties_77.exit, label %16

16:                                               ; preds = %14
  %17 = lshr i32 %0, 11
  %18 = zext nneg i32 %17 to i64
  %19 = getelementptr inbounds nuw i16, ptr @_ZL22propsVectorsTrie_index, i64 %18
  %20 = getelementptr inbounds nuw i8, ptr %19, i64 4160
  %21 = load i16, ptr %20, align 2, !tbaa !3
  %22 = zext i16 %21 to i32
  %23 = lshr i32 %0, 5
  %24 = and i32 %23, 63
  %25 = add nuw nsw i32 %24, %22
  br label %.sink.split.i

.sink.split.i:                                    ; preds = %16, %9, %5
  %.sink21.i = phi i32 [ %13, %9 ], [ %25, %16 ], [ %6, %5 ]
  %26 = zext nneg i32 %.sink21.i to i64
  %27 = getelementptr inbounds nuw i16, ptr @_ZL22propsVectorsTrie_index, i64 %26
  %28 = load i16, ptr %27, align 2, !tbaa !3
  %29 = zext i16 %28 to i32
  %30 = shl nuw nsw i32 %29, 2
  %31 = and i32 %0, 31
  %32 = add nuw nsw i32 %30, %31
  %33 = zext nneg i32 %32 to i64
  br label %u_getUnicodeProperties_77.exit

u_getUnicodeProperties_77.exit:                   ; preds = %14, %.sink.split.i
  %34 = phi i64 [ 5364, %14 ], [ %33, %.sink.split.i ]
  %35 = getelementptr inbounds nuw i16, ptr @_ZL22propsVectorsTrie_index, i64 %34
  %36 = load i16, ptr %35, align 2, !tbaa !3
  %37 = zext i16 %36 to i64
  %38 = getelementptr inbounds nuw [6426 x i32], ptr @_ZL12propsVectors, i64 0, i64 %37
  %39 = load i32, ptr %38, align 4, !tbaa !11
  %40 = lshr i32 %39, 24
  %41 = lshr i32 %39, 26
  %42 = trunc nuw nsw i32 %41 to i8
  store i8 %42, ptr %1, align 1, !tbaa !15
  %43 = trunc nuw i32 %40 to i8
  %44 = and i8 %43, 3
  %45 = getelementptr inbounds nuw i8, ptr %1, i64 1
  store i8 %44, ptr %45, align 1, !tbaa !15
  %46 = getelementptr inbounds nuw i8, ptr %1, i64 3
  store i8 0, ptr %46, align 1, !tbaa !15
  %47 = getelementptr inbounds nuw i8, ptr %1, i64 2
  store i8 0, ptr %47, align 1, !tbaa !15
  br label %48

48:                                               ; preds = %u_getUnicodeProperties_77.exit, %2
  ret void
}